; Function Attrs: nounwind uwtable
define noalias nonnull ptr @l_Lean_Linter_initFn____x40_Lean_Linter_UnusedVariables___hyg_426____lambda__6(ptr noundef readonly captures(none) %0) local_unnamed_addr #1 {
  %2 = getelementptr inbounds nuw i8, ptr %0, i64 8
  %3 = load ptr, ptr %2, align 8, !tbaa !4
  %4 = tail call ptr @l_List_lengthTRAux___rarg(ptr noundef %3, ptr noundef nonnull inttoptr (i64 1 to ptr)) #7
  %5 = tail call ptr @l___private_Init_Data_Repr_0__Nat_reprFast(ptr noundef %4) #7
  tail call void @lean_inc_heartbeat() #7
  %6 = tail call noalias ptr @mi_malloc_small(i64 noundef 16) #7
  %7 = icmp eq ptr %6, null
  br i1 %7, label %8, label %lean_alloc_ctor.exit

8:                                                ; preds = %1
  tail call void @lean_internal_panic_out_of_memory() #8
  unreachable

lean_alloc_ctor.exit:                             ; preds = %1
  %9 = getelementptr inbounds nuw i8, ptr %6, i64 4
  store i32 1, ptr %6, align 4, !tbaa !8
  store i32 50397200, ptr %9, align 4
  %10 = getelementptr inbounds nuw i8, ptr %6, i64 8
  store ptr %5, ptr %10, align 8, !tbaa !4
  %11 = load ptr, ptr @l_Lean_Linter_initFn____x40_Lean_Linter_UnusedVariables___hyg_426____lambda__6___closed__2, align 8, !tbaa !4
  tail call void @lean_inc_heartbeat() #7
  %12 = tail call noalias ptr @mi_malloc_small(i64 noundef 24) #7
  %13 = icmp eq ptr %12, null
  br i1 %13, label %14, label %lean_alloc_ctor.exit11

14:                                               ; preds = %lean_alloc_ctor.exit
  tail call void @lean_internal_panic_out_of_memory() #8
  unreachable

lean_alloc_ctor.exit11:                           ; preds = %lean_alloc_ctor.exit
  %15 = getelementptr inbounds nuw i8, ptr %12, i64 4
  store i32 1, ptr %12, align 4, !tbaa !8
  store i32 84017176, ptr %15, align 4
  %16 = getelementptr inbounds nuw i8, ptr %12, i64 8
  store ptr %11, ptr %16, align 8, !tbaa !4
  %17 = getelementptr inbounds nuw i8, ptr %12, i64 16
  store ptr %6, ptr %17, align 8, !tbaa !4
  ret ptr %12
}